target datalayout = "e-m:e-p270:32:32-p271:32:32-p272:64:64-i64:64-i128:128-f80:128-n8:16:32:64-S128"
target triple = "x86_64-pc-linux-gnu"

%struct.GCRef = type { i64 }
%struct.MRef = type { i64 }
%struct.lua_State = type { %struct.GCRef, i8, i8, i8, i8, %struct.MRef, %struct.GCRef, ptr, ptr, %struct.MRef, %struct.MRef, %struct.GCRef, %struct.GCRef, ptr, i32 }
%struct.ExitDataCP = type { ptr, ptr, ptr }

; Function Attrs: nounwind uwtable
define internal ptr @trace_exit_cp(ptr noundef %0, ptr noundef %1, ptr noundef %2) #3 {
  %4 = alloca ptr, align 8
  %5 = alloca ptr, align 8
  %6 = alloca ptr, align 8
  %7 = alloca ptr, align 8
  store ptr %0, ptr %4, align 8, !tbaa !35
  store ptr %1, ptr %5, align 8, !tbaa !52
  store ptr %2, ptr %6, align 8, !tbaa !52
  call void @llvm.lifetime.start.p0(i64 8, ptr %7) #11
  %8 = load ptr, ptr %6, align 8, !tbaa !52
  store ptr %8, ptr %7, align 8, !tbaa !130
  %9 = load ptr, ptr %4, align 8, !tbaa !35
  %10 = getelementptr inbounds nuw %struct.lua_State, ptr %9, i32 0, i32 13
  %11 = load ptr, ptr %10, align 8, !tbaa !124
  %12 = getelementptr inbounds i8, ptr %11, i64 12
  store i32 0, ptr %12, align 4, !tbaa !9
  %13 = load ptr, ptr %4, align 8, !tbaa !35
  %14 = getelementptr inbounds nuw %struct.lua_State, ptr %13, i32 0, i32 13
  %15 = load ptr, ptr %14, align 8, !tbaa !124
  %16 = getelementptr inbounds i8, ptr %15, i64 8
  store i32 -1048000, ptr %16, align 4, !tbaa !9
  %17 = load ptr, ptr %7, align 8, !tbaa !130
  %18 = getelementptr inbounds nuw %struct.ExitDataCP, ptr %17, i32 0, i32 0
  %19 = load ptr, ptr %18, align 8, !tbaa !119
  %20 = load ptr, ptr %7, align 8, !tbaa !130
  %21 = getelementptr inbounds nuw %struct.ExitDataCP, ptr %20, i32 0, i32 1
  %22 = load ptr, ptr %21, align 8, !tbaa !121
  %23 = call ptr @lj_snap_restore(ptr noundef %19, ptr noundef %22)
  %24 = load ptr, ptr %7, align 8, !tbaa !130
  %25 = getelementptr inbounds nuw %struct.ExitDataCP, ptr %24, i32 0, i32 2
  store ptr %23, ptr %25, align 8, !tbaa !123
  call void @llvm.lifetime.end.p0(i64 8, ptr %7) #11
  ret ptr null
}