; Function Attrs: nounwind uwtable
define internal noalias noundef ptr @trace_exit_cp(ptr noundef readonly captures(none) %0, ptr readnone captures(none) %1, ptr noundef captures(none) initializes((16, 24)) %2) #2 {
  %4 = getelementptr inbounds nuw i8, ptr %0, i64 80
  %5 = load ptr, ptr %4, align 8, !tbaa !152
  %6 = getelementptr inbounds nuw i8, ptr %5, i64 12
  store i32 0, ptr %6, align 4, !tbaa !56
  %7 = getelementptr inbounds nuw i8, ptr %5, i64 8
  store i32 -1048000, ptr %7, align 4, !tbaa !56
  %8 = load ptr, ptr %2, align 8, !tbaa !139
  %9 = getelementptr inbounds nuw i8, ptr %2, i64 8
  %10 = load ptr, ptr %9, align 8, !tbaa !142
  %11 = tail call ptr @lj_snap_restore(ptr noundef %8, ptr noundef %10) #14
  %12 = getelementptr inbounds nuw i8, ptr %2, i64 16
  store ptr %11, ptr %12, align 8, !tbaa !151
  ret ptr null
}